target datalayout = "e-m:e-p270:32:32-p271:32:32-p272:64:64-i64:64-i128:128-f80:128-n8:16:32:64-S128"
target triple = "x86_64-pc-linux-gnu"

%struct.FT_DriverRec_ = type { %struct.FT_ModuleRec_, ptr, %struct.FT_ListRec_, ptr }
%struct.FT_ModuleRec_ = type { ptr, ptr, ptr }
%struct.FT_ListRec_ = type { ptr, ptr }
%struct.FT_CharMapRec_ = type { ptr, i32, i16, i16 }
%struct.T1_FaceRec_ = type { %struct.FT_FaceRec_, %struct.T1_FontRec_, ptr, ptr, ptr, [2 x %struct.FT_CharMapRec_], [2 x ptr], ptr, i32, i32, i32, ptr, ptr }
%struct.FT_FaceRec_ = type { i64, i64, i64, i64, i64, ptr, ptr, i32, ptr, i32, ptr, %struct.FT_Generic_, %struct.FT_BBox_, i16, i16, i16, i16, i16, i16, i16, i16, ptr, ptr, ptr, ptr, ptr, ptr, %struct.FT_ListRec_, %struct.FT_Generic_, ptr, ptr }
%struct.FT_BBox_ = type { i64, i64, i64, i64 }
%struct.FT_Generic_ = type { ptr, ptr }
%struct.T1_FontRec_ = type { %struct.PS_FontInfoRec_, %struct.PS_FontExtraRec_, %struct.PS_PrivateRec_, ptr, i32, %struct.T1_EncodingRecRec_, ptr, ptr, ptr, i32, ptr, ptr, ptr, i32, ptr, ptr, ptr, i8, i8, %struct.FT_Matrix_, %struct.FT_Vector_, %struct.FT_BBox_, i64, i64 }
%struct.PS_FontInfoRec_ = type { ptr, ptr, ptr, ptr, ptr, i64, i8, i16, i16 }
%struct.PS_FontExtraRec_ = type { i16 }
%struct.PS_PrivateRec_ = type { i32, i32, i8, i8, i8, i8, [14 x i16], [10 x i16], [14 x i16], [10 x i16], i64, i32, i32, [1 x i16], [1 x i16], i8, i8, i8, i8, [13 x i16], [13 x i16], i64, i64, i64, [2 x i16] }
%struct.T1_EncodingRecRec_ = type { i32, i32, i32, ptr, ptr }
%struct.FT_Matrix_ = type { i64, i64, i64, i64 }
%struct.FT_Vector_ = type { i64, i64 }
%struct.T1_SizeRec_ = type { %struct.FT_SizeRec_ }
%struct.FT_SizeRec_ = type { ptr, %struct.FT_Generic_, %struct.FT_Size_Metrics_, ptr }
%struct.FT_Size_Metrics_ = type { i16, i16, i64, i64, i64, i64, i64, i64 }
%struct.PSH_Globals_FuncsRec_ = type { ptr, ptr, ptr }
%struct.FT_Size_InternalRec_ = type { ptr, i32, %struct.FT_Size_Metrics_ }
%struct.PSHinter_Interface_ = type { ptr, ptr, ptr }

@.str.14 = private unnamed_addr constant [9 x i8] c"pshinter\00", align 1

; Function Attrs: nounwind uwtable
define internal ptr @T1_Size_Get_Globals_Funcs(ptr noundef %0) #0 {
  %2 = alloca ptr, align 8
  %3 = alloca ptr, align 8
  %4 = alloca ptr, align 8
  %5 = alloca ptr, align 8
  store ptr %0, ptr %2, align 8
  %6 = load ptr, ptr %2, align 8
  %7 = getelementptr inbounds %struct.T1_SizeRec_, ptr %6, i32 0, i32 0
  %8 = getelementptr inbounds %struct.FT_SizeRec_, ptr %7, i32 0, i32 0
  %9 = load ptr, ptr %8, align 8
  store ptr %9, ptr %3, align 8
  %10 = load ptr, ptr %3, align 8
  %11 = getelementptr inbounds %struct.T1_FaceRec_, ptr %10, i32 0, i32 12
  %12 = load ptr, ptr %11, align 8
  store ptr %12, ptr %4, align 8
  %13 = load ptr, ptr %2, align 8
  %14 = getelementptr inbounds %struct.T1_SizeRec_, ptr %13, i32 0, i32 0
  %15 = getelementptr inbounds %struct.FT_SizeRec_, ptr %14, i32 0, i32 0
  %16 = load ptr, ptr %15, align 8
  %17 = getelementptr inbounds %struct.FT_FaceRec_, ptr %16, i32 0, i32 24
  %18 = load ptr, ptr %17, align 8
  %19 = getelementptr inbounds %struct.FT_DriverRec_, ptr %18, i32 0, i32 0
  %20 = getelementptr inbounds %struct.FT_ModuleRec_, ptr %19, i32 0, i32 1
  %21 = load ptr, ptr %20, align 8
  %22 = call ptr @FT_Get_Module(ptr noundef %21, ptr noundef @.str.14)
  store ptr %22, ptr %5, align 8
  %23 = load ptr, ptr %5, align 8
  %24 = icmp ne ptr %23, null
  br i1 %24, label %25, label %39

25:                                               ; preds = %1
  %26 = load ptr, ptr %4, align 8
  %27 = icmp ne ptr %26, null
  br i1 %27, label %28, label %39

28:                                               ; preds = %25
  %29 = load ptr, ptr %4, align 8
  %30 = getelementptr inbounds %struct.PSHinter_Interface_, ptr %29, i32 0, i32 0
  %31 = load ptr, ptr %30, align 8
  %32 = icmp ne ptr %31, null
  br i1 %32, label %33, label %39

33:                                               ; preds = %28
  %34 = load ptr, ptr %4, align 8
  %35 = getelementptr inbounds %struct.PSHinter_Interface_, ptr %34, i32 0, i32 0
  %36 = load ptr, ptr %35, align 8
  %37 = load ptr, ptr %5, align 8
  %38 = call ptr %36(ptr noundef %37)
  br label %40

39:                                               ; preds = %28, %25, %1
  br label %40

40:                                               ; preds = %39, %33
  %41 = phi ptr [ %38, %33 ], [ null, %39 ]
  ret ptr %41
}

; Function Attrs: nounwind uwtable
define internal void @T1_Size_Done(ptr noundef %0) #0 {
  %2 = alloca ptr, align 8
  %3 = alloca ptr, align 8
  %4 = alloca ptr, align 8
  store ptr %0, ptr %2, align 8
  %5 = load ptr, ptr %2, align 8
  store ptr %5, ptr %3, align 8
  %6 = load ptr, ptr %2, align 8
  %7 = getelementptr inbounds %struct.FT_SizeRec_, ptr %6, i32 0, i32 3
  %8 = load ptr, ptr %7, align 8
  %9 = getelementptr inbounds %struct.FT_Size_InternalRec_, ptr %8, i32 0, i32 0
  %10 = load ptr, ptr %9, align 8
  %11 = icmp ne ptr %10, null
  br i1 %11, label %12, label %31

12:                                               ; preds = %1
  %13 = load ptr, ptr %3, align 8
  %14 = call ptr @T1_Size_Get_Globals_Funcs(ptr noundef %13)
  store ptr %14, ptr %4, align 8
  %15 = load ptr, ptr %4, align 8
  %16 = icmp ne ptr %15, null
  br i1 %16, label %17, label %26

17:                                               ; preds = %12
  %18 = load ptr, ptr %4, align 8
  %19 = getelementptr inbounds %struct.PSH_Globals_FuncsRec_, ptr %18, i32 0, i32 2
  %20 = load ptr, ptr %19, align 8
  %21 = load ptr, ptr %2, align 8
  %22 = getelementptr inbounds %struct.FT_SizeRec_, ptr %21, i32 0, i32 3
  %23 = load ptr, ptr %22, align 8
  %24 = getelementptr inbounds %struct.FT_Size_InternalRec_, ptr %23, i32 0, i32 0
  %25 = load ptr, ptr %24, align 8
  call void %20(ptr noundef %25)
  br label %26

26:                                               ; preds = %17, %12
  %27 = load ptr, ptr %2, align 8
  %28 = getelementptr inbounds %struct.FT_SizeRec_, ptr %27, i32 0, i32 3
  %29 = load ptr, ptr %28, align 8
  %30 = getelementptr inbounds %struct.FT_Size_InternalRec_, ptr %29, i32 0, i32 0
  store ptr null, ptr %30, align 8
  br label %31

31:                                               ; preds = %26, %1
  ret void
}