; Function Attrs: nounwind uwtable
define internal void @T1_Size_Done(ptr nocapture noundef readonly %0) #2 {
  %2 = getelementptr inbounds i8, ptr %0, i64 80
  %3 = load ptr, ptr %2, align 8
  %4 = load ptr, ptr %3, align 8
  %.not = icmp eq ptr %4, null
  br i1 %.not, label %21, label %5

5:                                                ; preds = %1
  %.val = load ptr, ptr %0, align 8
  %6 = getelementptr i8, ptr %.val, i64 176
  %.val.val = load ptr, ptr %6, align 8
  %7 = getelementptr i8, ptr %.val, i64 880
  %.val.val8 = load ptr, ptr %7, align 8
  %8 = getelementptr i8, ptr %.val.val, i64 8
  %.val.val.val = load ptr, ptr %8, align 8
  %9 = tail call ptr @FT_Get_Module(ptr noundef %.val.val.val, ptr noundef nonnull @.str.14) #16
  %10 = icmp ne ptr %9, null
  %11 = icmp ne ptr %.val.val8, null
  %or.cond.i = select i1 %10, i1 %11, i1 false
  br i1 %or.cond.i, label %12, label %T1_Size_Get_Globals_Funcs.exit.thread

12:                                               ; preds = %5
  %13 = load ptr, ptr %.val.val8, align 8
  %.not.i = icmp eq ptr %13, null
  br i1 %.not.i, label %T1_Size_Get_Globals_Funcs.exit.thread, label %T1_Size_Get_Globals_Funcs.exit

T1_Size_Get_Globals_Funcs.exit:                   ; preds = %12
  %14 = tail call ptr %13(ptr noundef nonnull %9) #16
  %.not7 = icmp eq ptr %14, null
  br i1 %.not7, label %T1_Size_Get_Globals_Funcs.exit.thread, label %15

15:                                               ; preds = %T1_Size_Get_Globals_Funcs.exit
  %16 = getelementptr inbounds i8, ptr %14, i64 16
  %17 = load ptr, ptr %16, align 8
  %18 = load ptr, ptr %2, align 8
  %19 = load ptr, ptr %18, align 8
  tail call void %17(ptr noundef %19) #16
  br label %T1_Size_Get_Globals_Funcs.exit.thread

T1_Size_Get_Globals_Funcs.exit.thread:            ; preds = %5, %12, %15, %T1_Size_Get_Globals_Funcs.exit
  %20 = load ptr, ptr %2, align 8
  store ptr null, ptr %20, align 8
  br label %21

21:                                               ; preds = %T1_Size_Get_Globals_Funcs.exit.thread, %1
  ret void
}